; Function Attrs: nounwind uwtable
define i32 @PMIx_Fabric_deregister_nb(ptr noundef %0, ptr readnone captures(none) %1, ptr readnone captures(none) %2) local_unnamed_addr #0 {
  %4 = tail call i32 @pthread_mutex_lock(ptr noundef nonnull getelementptr inbounds nuw (i8, ptr @pmix_global_lock, i64 128)) #11
  %5 = load volatile i8, ptr getelementptr inbounds nuw (i8, ptr @pmix_global_lock, i64 216), align 8, !tbaa !3, !range !14, !noundef !15
  %6 = trunc nuw i8 %5 to i1
  br i1 %6, label %.lr.ph, label %._crit_edge

.lr.ph:                                           ; preds = %3, %.lr.ph
  %7 = tail call i32 @pthread_cond_wait(ptr noundef nonnull getelementptr inbounds nuw (i8, ptr @pmix_global_lock, i64 168), ptr noundef nonnull getelementptr inbounds nuw (i8, ptr @pmix_global_lock, i64 128)) #11
  %8 = load volatile i8, ptr getelementptr inbounds nuw (i8, ptr @pmix_global_lock, i64 216), align 8, !tbaa !3, !range !14, !noundef !15
  %9 = trunc nuw i8 %8 to i1
  br i1 %9, label %.lr.ph, label %._crit_edge, !llvm.loop !124

._crit_edge:                                      ; preds = %.lr.ph, %3
  fence acquire
  store volatile i8 1, ptr getelementptr inbounds nuw (i8, ptr @pmix_global_lock, i64 216), align 8, !tbaa !3
  %10 = load ptr, ptr getelementptr inbounds nuw (i8, ptr @pmix_globals, i64 328), align 8, !tbaa !72
  %11 = getelementptr inbounds nuw i8, ptr %10, i64 136
  %12 = load i32, ptr %11, align 8, !tbaa !73
  %.not = icmp sgt i32 %12, -1
  br i1 %.not, label %19, label %13

13:                                               ; preds = %._crit_edge
  %14 = load ptr, ptr getelementptr inbounds nuw (i8, ptr @pmix_pnet, i64 104), align 8, !tbaa !125
  %15 = tail call i32 %14(ptr noundef %0) #11
  store volatile i8 0, ptr getelementptr inbounds nuw (i8, ptr @pmix_global_lock, i64 216), align 8, !tbaa !3
  fence release
  %16 = tail call i32 @pthread_cond_broadcast(ptr noundef nonnull getelementptr inbounds nuw (i8, ptr @pmix_global_lock, i64 168)) #11
  %17 = tail call i32 @pthread_mutex_unlock(ptr noundef nonnull getelementptr inbounds nuw (i8, ptr @pmix_global_lock, i64 128)) #11
  %18 = icmp eq i32 %15, 0
  %spec.store.select = select i1 %18, i32 -157, i32 %15
  br label %27

19:                                               ; preds = %._crit_edge
  store volatile i8 0, ptr getelementptr inbounds nuw (i8, ptr @pmix_global_lock, i64 216), align 8, !tbaa !3
  fence release
  %20 = tail call i32 @pthread_cond_broadcast(ptr noundef nonnull getelementptr inbounds nuw (i8, ptr @pmix_global_lock, i64 168)) #11
  %21 = tail call i32 @pthread_mutex_unlock(ptr noundef nonnull getelementptr inbounds nuw (i8, ptr @pmix_global_lock, i64 128)) #11
  %22 = getelementptr inbounds nuw i8, ptr %0, i64 16
  %23 = load ptr, ptr %22, align 8, !tbaa !113
  %.not8 = icmp eq ptr %23, null
  br i1 %.not8, label %27, label %24

24:                                               ; preds = %19
  %25 = getelementptr inbounds nuw i8, ptr %0, i64 24
  %26 = load i64, ptr %25, align 8, !tbaa !111
  tail call void @PMIx_Info_free(ptr noundef nonnull %23, i64 noundef %26) #11
  store ptr null, ptr %22, align 8, !tbaa !113
  br label %27

27:                                               ; preds = %19, %24, %13
  %.0 = phi i32 [ %spec.store.select, %13 ], [ -157, %24 ], [ -157, %19 ]
  ret i32 %.0
}